; Function Attrs: mustprogress uwtable
define noundef i32 @_ZN3zmq12wss_engine_t4readEPvm(ptr noundef nonnull readonly align 8 captures(none) dereferenceable(25720) %0, ptr noundef %1, i64 noundef %2) unnamed_addr #0 align 2 {
  %4 = getelementptr inbounds nuw i8, ptr %0, i64 25712
  %5 = load ptr, ptr %4, align 8, !tbaa !82
  %6 = tail call i64 @gnutls_record_recv(ptr noundef %5, ptr noundef %1, i64 noundef %2)
  switch i64 %6, label %16 [
    i64 -37, label %7
    i64 -52, label %10
    i64 -28, label %12
    i64 0, label %14
  ]

7:                                                ; preds = %3
  %8 = load ptr, ptr %4, align 8, !tbaa !82
  %9 = tail call i32 @gnutls_alert_send(ptr noundef %8, i32 noundef 1, i32 noundef 100)
  br label %22

10:                                               ; preds = %3
  %11 = tail call ptr @__errno_location() #16
  store i32 4, ptr %11, align 4, !tbaa !83
  br label %22

12:                                               ; preds = %3
  %13 = tail call ptr @__errno_location() #16
  store i32 11, ptr %13, align 4, !tbaa !83
  br label %22

14:                                               ; preds = %3
  %15 = tail call ptr @__errno_location() #16
  store i32 32, ptr %15, align 4, !tbaa !83
  br label %22

16:                                               ; preds = %3
  %17 = icmp slt i64 %6, 0
  br i1 %17, label %18, label %20

18:                                               ; preds = %16
  %19 = tail call ptr @__errno_location() #16
  store i32 22, ptr %19, align 4, !tbaa !83
  br label %22

20:                                               ; preds = %16
  %21 = trunc i64 %6 to i32
  br label %22

22:                                               ; preds = %20, %18, %14, %12, %10, %7
  %.0 = phi i32 [ 0, %7 ], [ -1, %10 ], [ -1, %12 ], [ -1, %14 ], [ -1, %18 ], [ %21, %20 ]
  ret i32 %.0
}